; Function Attrs: nounwind uwtable
define range(i32 -1, 2) i32 @H5Fis_hdf5(ptr noundef %0) local_unnamed_addr #0 {
  %2 = alloca %struct.H5VL_file_specific_args_t, align 8
  %3 = alloca i8, align 1
  %4 = alloca %struct.H5CX_node_t, align 8
  call void @llvm.lifetime.start.p0(i64 32, ptr nonnull %2) #5
  call void @llvm.lifetime.start.p0(i64 1, ptr nonnull %3) #5
  store i8 0, ptr %3, align 1, !tbaa !3
  call void @llvm.lifetime.start.p0(i64 480, ptr nonnull %4) #5
  call void @llvm.memset.p0.i64(ptr noundef nonnull align 8 dereferenceable(480) %4, i8 0, i64 480, i1 false)
  %5 = load i8, ptr @H5_libinit_g, align 1, !tbaa !3, !range !7, !noundef !8
  %6 = trunc nuw i8 %5 to i1
  %7 = load i8, ptr @H5_libterm_g, align 1, !range !7
  %8 = trunc nuw i8 %7 to i1
  %9 = select i1 %6, i1 true, i1 %8
  br i1 %9, label %17, label %10, !prof !9

10:                                               ; preds = %1
  %11 = tail call i32 @H5_init_library() #5
  %12 = icmp slt i32 %11, 0
  br i1 %12, label %13, label %._crit_edge, !prof !10

._crit_edge:                                      ; preds = %10
  %.pre = load i8, ptr @H5_libterm_g, align 1, !range !7
  br label %17

13:                                               ; preds = %10
  %14 = load i64, ptr @H5E_FUNC_g, align 8, !tbaa !11
  %15 = load i64, ptr @H5E_CANTINIT_g, align 8, !tbaa !11
  %16 = tail call i32 (ptr, ptr, i32, i64, i64, ptr, ...) @H5E_printf_stack(ptr noundef nonnull @.str, ptr noundef nonnull @__func__.H5Fis_hdf5, i32 noundef 150, i64 noundef %14, i64 noundef %15, ptr noundef nonnull @.str.1) #5
  br label %.thread22

17:                                               ; preds = %._crit_edge, %1
  %18 = phi i8 [ %.pre, %._crit_edge ], [ %7, %1 ]
  %19 = load i8, ptr @H5F_init_g, align 1, !tbaa !3, !range !7, !noundef !8
  %20 = trunc nuw i8 %19 to i1
  %21 = trunc nuw i8 %18 to i1
  %22 = select i1 %20, i1 true, i1 %21
  br i1 %22, label %30, label %23, !prof !9

23:                                               ; preds = %17
  store i8 1, ptr @H5F_init_g, align 1, !tbaa !3
  %24 = tail call i32 @H5F__init_package() #5
  %25 = icmp slt i32 %24, 0
  br i1 %25, label %26, label %30, !prof !13

26:                                               ; preds = %23
  store i8 0, ptr @H5F_init_g, align 1, !tbaa !3
  %27 = load i64, ptr @H5E_FUNC_g, align 8, !tbaa !11
  %28 = load i64, ptr @H5E_CANTINIT_g, align 8, !tbaa !11
  %29 = tail call i32 (ptr, ptr, i32, i64, i64, ptr, ...) @H5E_printf_stack(ptr noundef nonnull @.str, ptr noundef nonnull @__func__.H5Fis_hdf5, i32 noundef 150, i64 noundef %27, i64 noundef %28, ptr noundef nonnull @.str.2) #5
  br label %.thread22

30:                                               ; preds = %17, %23
  %31 = call i32 @H5CX_push(ptr noundef nonnull %4) #5
  %32 = icmp slt i32 %31, 0
  br i1 %32, label %33, label %37, !prof !10

33:                                               ; preds = %30
  %34 = load i64, ptr @H5E_FUNC_g, align 8, !tbaa !11
  %35 = load i64, ptr @H5E_CANTSET_g, align 8, !tbaa !11
  %36 = call i32 (ptr, ptr, i32, i64, i64, ptr, ...) @H5E_printf_stack(ptr noundef nonnull @.str, ptr noundef nonnull @__func__.H5Fis_hdf5, i32 noundef 150, i64 noundef %34, i64 noundef %35, ptr noundef nonnull @.str.3) #5
  br label %.thread22

37:                                               ; preds = %30
  %38 = call i32 @H5E_clear_stack() #5
  %.not = icmp eq ptr %0, null
  br i1 %.not, label %41, label %39

39:                                               ; preds = %37
  %40 = load i8, ptr %0, align 1, !tbaa !15
  %.not13 = icmp eq i8 %40, 0
  br i1 %.not13, label %41, label %45

41:                                               ; preds = %37, %39
  %42 = load i64, ptr @H5E_ARGS_g, align 8, !tbaa !11
  %43 = load i64, ptr @H5E_BADRANGE_g, align 8, !tbaa !11
  %44 = call i32 (ptr, ptr, i32, i64, i64, ptr, ...) @H5E_printf_stack(ptr noundef nonnull @.str, ptr noundef nonnull @__func__.H5Fis_hdf5, i32 noundef 154, i64 noundef %42, i64 noundef %43, ptr noundef nonnull @.str.8) #5
  br label %.thread28

45:                                               ; preds = %39
  store i32 2, ptr %2, align 8, !tbaa !32
  %46 = getelementptr inbounds nuw i8, ptr %2, i64 8
  store ptr %0, ptr %46, align 8, !tbaa !15
  %47 = load i64, ptr @H5P_LST_FILE_ACCESS_ID_g, align 8, !tbaa !11
  %48 = getelementptr inbounds nuw i8, ptr %2, i64 16
  store i64 %47, ptr %48, align 8, !tbaa !15
  %49 = getelementptr inbounds nuw i8, ptr %2, i64 24
  store ptr %3, ptr %49, align 8, !tbaa !15
  %50 = load i64, ptr @H5P_LST_DATASET_XFER_ID_g, align 8, !tbaa !11
  %51 = call i32 @H5VL_file_specific(ptr noundef null, ptr noundef nonnull %2, i64 noundef %50, ptr noundef null) #5
  %52 = icmp slt i32 %51, 0
  br i1 %52, label %53, label %58

53:                                               ; preds = %45
  %54 = load i64, ptr @H5E_FILE_g, align 8, !tbaa !11
  %55 = load i64, ptr @H5E_NOTHDF5_g, align 8, !tbaa !11
  %56 = call i32 (ptr, ptr, i32, i64, i64, ptr, ...) @H5E_printf_stack(ptr noundef nonnull @.str, ptr noundef nonnull @__func__.H5Fis_hdf5, i32 noundef 164, i64 noundef %54, i64 noundef %55, ptr noundef nonnull @.str.9) #5
  br label %.thread28

.thread28:                                        ; preds = %41, %53
  %57 = call i32 @H5CX_pop(i1 noundef zeroext true) #5
  br label %.thread22

58:                                               ; preds = %45
  %59 = load i8, ptr %3, align 1, !tbaa !3, !range !7, !noundef !8
  %60 = zext nneg i8 %59 to i32
  %61 = call i32 @H5CX_pop(i1 noundef zeroext true) #5
  br label %63

.thread22:                                        ; preds = %33, %26, %13, %.thread28
  %62 = call i32 @H5E_dump_api_stack() #5
  br label %63

63:                                               ; preds = %58, %.thread22
  %.0111725 = phi i32 [ -1, %.thread22 ], [ %60, %58 ]
  call void @llvm.lifetime.end.p0(i64 480, ptr nonnull %4) #5
  call void @llvm.lifetime.end.p0(i64 1, ptr nonnull %3) #5
  call void @llvm.lifetime.end.p0(i64 32, ptr nonnull %2) #5
  ret i32 %.0111725
}